; Function Attrs: mustprogress nounwind uwtable
define dso_local void @_ZN4llvm10DwarfDebug28emitStringOffsetsTableHeaderEv(ptr noundef nonnull align 8 dereferenceable(5828) %0) local_unnamed_addr #0 align 2 {
  %2 = getelementptr inbounds nuw i8, ptr %0, i64 3473
  %3 = load i8, ptr %2, align 1
  %4 = trunc i8 %3 to i1
  %.v = select i1 %4, i64 3480, i64 2912
  %5 = getelementptr inbounds nuw i8, ptr %0, i64 %.v
  %6 = getelementptr inbounds nuw i8, ptr %5, i64 176
  %7 = getelementptr inbounds nuw i8, ptr %0, i64 8
  %8 = load ptr, ptr %7, align 8
  %9 = tail call noundef nonnull align 8 dereferenceable(968) ptr @_ZNK4llvm10AsmPrinter18getObjFileLoweringEv(ptr noundef nonnull align 8 dereferenceable(785) %8) #27
  %10 = getelementptr inbounds nuw i8, ptr %9, i64 296
  %11 = load ptr, ptr %10, align 8
  %12 = getelementptr inbounds nuw i8, ptr %5, i64 320
  %13 = load ptr, ptr %12, align 8
  tail call void @_ZN4llvm15DwarfStringPool28emitStringOffsetsTableHeaderERNS_10AsmPrinterEPNS_9MCSectionEPNS_8MCSymbolE(ptr noundef nonnull align 8 dereferenceable(61) %6, ptr noundef nonnull align 8 dereferenceable(785) %8, ptr noundef %11, ptr noundef %13) #27
  ret void
}